target datalayout = "e-m:e-p270:32:32-p271:32:32-p272:64:64-i64:64-i128:128-f80:128-n8:16:32:64-S128"
target triple = "x86_64-pc-linux-gnu"

%class.RangeCoder = type { i32, i32, i32, %"struct.RangeCoder::SUBRANGE", ptr }
%"struct.RangeCoder::SUBRANGE" = type { i32, i32, i32 }
%class.SubAllocator = type { i64, [38 x i8], [128 x i8], i8, ptr, ptr, ptr, [38 x %"struct.SubAllocator::RAR_NODE"], ptr, ptr, ptr, ptr }
%"struct.SubAllocator::RAR_NODE" = type { ptr }
%class.ModelPPM = type <{ i8, [25 x [16 x %struct.RARPPM_SEE2_CONTEXT]], %struct.RARPPM_SEE2_CONTEXT, [3 x i8], ptr, ptr, ptr, ptr, i32, i32, i32, i32, i32, i32, [256 x i8], [256 x i8], [256 x i8], [256 x i8], i8, i8, i8, i8, [128 x [64 x i16]], [4 x i8], %class.RangeCoder, %class.SubAllocator }>
%struct.RARPPM_SEE2_CONTEXT = type { i16, i8, i8 }
%class.Unpack = type { ptr, %class.BitInput, %class.Array, %class.Array, %class.Array.0, [4 x i32], i32, i32, i32, i64, i64, i32, i32, %struct.UnpackBlockHeader, %struct.UnpackBlockTables, i64, ptr, %class.FragmentedWindow, i8, i64, i8, i8, i8, i64, i8, [256 x i16], [256 x i16], [256 x i16], [256 x i16], [256 x i8], [256 x i8], [256 x i8], i32, i32, i32, i32, i32, i32, i32, i32, i32, i32, i32, i32, i32, i32, [4 x %struct.DecodeTable], [1028 x i8], i8, i32, i32, i32, [4 x %struct.AudioVariables], i32, i32, %class.ModelPPM, i32, [404 x i8], i32, i8, i8, i8, %class.RarVM, %class.BitInput, %class.Array.1, %class.Array.1, %class.Array.2, i32, i64, i64 }
%class.Array = type { ptr, i64, i64, i64 }
%class.Array.0 = type { ptr, i64, i64, i64 }
%struct.UnpackBlockHeader = type { i32, i32, i32, i32, i8, i8 }
%struct.UnpackBlockTables = type { %struct.DecodeTable, %struct.DecodeTable, %struct.DecodeTable, %struct.DecodeTable, %struct.DecodeTable }
%struct.DecodeTable = type { i32, [16 x i32], [16 x i32], i32, [1024 x i8], [1024 x i16], [306 x i16] }
%class.FragmentedWindow = type { [32 x ptr], [32 x i64] }
%struct.AudioVariables = type { i32, i32, i32, i32, i32, i32, i32, i32, i32, i32, [11 x i32], i32, i32 }
%class.RarVM = type { ptr, [8 x i32] }
%class.BitInput = type { i32, i32, i8, ptr }
%class.Array.1 = type { ptr, i64, i64, i64 }
%class.Array.2 = type { ptr, i64, i64, i64 }

; Function Attrs: mustprogress nounwind uwtable
define linkonce_odr noundef i32 @_Z10ByteSwap32j(i32 noundef %0) #1 comdat {
  %2 = alloca i32, align 4
  store i32 %0, ptr %2, align 4
  %3 = load i32, ptr %2, align 4
  %4 = call i32 @llvm.bswap.i32(i32 %3)
  ret i32 %4
}

; Function Attrs: mustprogress nounwind uwtable
define linkonce_odr void @_ZN8BitInput7addbitsEj(ptr noundef nonnull align 8 dereferenceable(24) %0, i32 noundef %1) #1 comdat align 2 {
  %3 = alloca ptr, align 8
  %4 = alloca i32, align 4
  store ptr %0, ptr %3, align 8
  store i32 %1, ptr %4, align 4
  %5 = load ptr, ptr %3, align 8
  %6 = getelementptr inbounds %class.BitInput, ptr %5, i32 0, i32 1
  %7 = load i32, ptr %6, align 4
  %8 = load i32, ptr %4, align 4
  %9 = add i32 %8, %7
  store i32 %9, ptr %4, align 4
  %10 = load i32, ptr %4, align 4
  %11 = lshr i32 %10, 3
  %12 = getelementptr inbounds %class.BitInput, ptr %5, i32 0, i32 0
  %13 = load i32, ptr %12, align 8
  %14 = add i32 %13, %11
  store i32 %14, ptr %12, align 8
  %15 = load i32, ptr %4, align 4
  %16 = and i32 %15, 7
  %17 = getelementptr inbounds %class.BitInput, ptr %5, i32 0, i32 1
  store i32 %16, ptr %17, align 4
  ret void
}

; Function Attrs: mustprogress uwtable
define linkonce_odr noundef i32 @_ZN8BitInput7getbitsEv(ptr noundef nonnull align 8 dereferenceable(24) %0) #0 comdat align 2 {
  %2 = alloca ptr, align 8
  %3 = alloca i32, align 4
  store ptr %0, ptr %2, align 8
  %4 = load ptr, ptr %2, align 8
  %5 = getelementptr inbounds %class.BitInput, ptr %4, i32 0, i32 3
  %6 = load ptr, ptr %5, align 8
  %7 = getelementptr inbounds %class.BitInput, ptr %4, i32 0, i32 0
  %8 = load i32, ptr %7, align 8
  %9 = sext i32 %8 to i64
  %10 = getelementptr inbounds i8, ptr %6, i64 %9
  %11 = load i32, ptr %10, align 4
  store i32 %11, ptr %3, align 4
  %12 = load i32, ptr %3, align 4
  %13 = call noundef i32 @_Z10ByteSwap32j(i32 noundef %12)
  store i32 %13, ptr %3, align 4
  %14 = getelementptr inbounds %class.BitInput, ptr %4, i32 0, i32 1
  %15 = load i32, ptr %14, align 4
  %16 = sub nsw i32 16, %15
  %17 = load i32, ptr %3, align 4
  %18 = lshr i32 %17, %16
  store i32 %18, ptr %3, align 4
  %19 = load i32, ptr %3, align 4
  %20 = and i32 %19, 65535
  ret i32 %20
}

; Function Attrs: mustprogress uwtable
define noundef zeroext i1 @_ZN6Unpack14ReadEndOfBlockEv(ptr noundef nonnull align 8 dereferenceable(59688) %0) #0 align 2 {
  %2 = alloca i1, align 1
  %3 = alloca ptr, align 8
  %4 = alloca i32, align 4
  %5 = alloca i8, align 1
  %6 = alloca i8, align 1
  store ptr %0, ptr %3, align 8
  %7 = load ptr, ptr %3, align 8
  %8 = getelementptr inbounds %class.Unpack, ptr %7, i32 0, i32 1
  %9 = call noundef i32 @_ZN8BitInput7getbitsEv(ptr noundef nonnull align 8 dereferenceable(24) %8)
  store i32 %9, ptr %4, align 4
  store i8 0, ptr %6, align 1
  %10 = load i32, ptr %4, align 4
  %11 = and i32 %10, 32768
  %12 = icmp ne i32 %11, 0
  br i1 %12, label %13, label %15

13:                                               ; preds = %1
  store i8 1, ptr %5, align 1
  %14 = getelementptr inbounds %class.Unpack, ptr %7, i32 0, i32 1
  call void @_ZN8BitInput7addbitsEj(ptr noundef nonnull align 8 dereferenceable(24) %14, i32 noundef 1)
  br label %21

15:                                               ; preds = %1
  store i8 1, ptr %6, align 1
  %16 = load i32, ptr %4, align 4
  %17 = and i32 %16, 16384
  %18 = icmp ne i32 %17, 0
  %19 = zext i1 %18 to i8
  store i8 %19, ptr %5, align 1
  %20 = getelementptr inbounds %class.Unpack, ptr %7, i32 0, i32 1
  call void @_ZN8BitInput7addbitsEj(ptr noundef nonnull align 8 dereferenceable(24) %20, i32 noundef 2)
  br label %21

21:                                               ; preds = %15, %13
  %22 = load i8, ptr %5, align 1
  %23 = trunc i8 %22 to i1
  %24 = xor i1 %23, true
  %25 = getelementptr inbounds %class.Unpack, ptr %7, i32 0, i32 60
  %26 = zext i1 %24 to i8
  store i8 %26, ptr %25, align 1
  %27 = load i8, ptr %6, align 1
  %28 = trunc i8 %27 to i1
  br i1 %28, label %29, label %30

29:                                               ; preds = %21
  store i1 false, ptr %2, align 1
  br label %32

30:                                               ; preds = %21
  %31 = call noundef zeroext i1 @_ZN6Unpack12ReadTables30Ev(ptr noundef nonnull align 8 dereferenceable(59688) %7)
  store i1 %31, ptr %2, align 1
  br label %32

32:                                               ; preds = %30, %29
  %33 = load i1, ptr %2, align 1
  ret i1 %33
}