; Function Attrs: mustprogress uwtable
define noundef zeroext i1 @_ZN6Unpack14ReadEndOfBlockEv(ptr noundef nonnull align 8 dereferenceable(59688) %0) local_unnamed_addr #0 align 2 {
  %2 = getelementptr inbounds i8, ptr %0, i64 8
  %3 = getelementptr inbounds i8, ptr %0, i64 24
  %4 = load ptr, ptr %3, align 8
  %5 = load i32, ptr %2, align 8
  %6 = sext i32 %5 to i64
  %7 = getelementptr inbounds i8, ptr %4, i64 %6
  %8 = load i32, ptr %7, align 4
  %9 = tail call noundef i32 @llvm.bswap.i32(i32 %8)
  %10 = getelementptr inbounds i8, ptr %0, i64 12
  %11 = load i32, ptr %10, align 4
  %12 = sub nsw i32 16, %11
  %13 = lshr i32 %9, %12
  %14 = and i32 %13, 32768
  %.not = icmp eq i32 %14, 0
  br i1 %.not, label %.thread, label %23

.thread:                                          ; preds = %1
  %15 = and i32 %13, 16384
  %16 = icmp eq i32 %15, 0
  %17 = add i32 %11, 2
  %18 = lshr i32 %17, 3
  %19 = add i32 %18, %5
  store i32 %19, ptr %2, align 8
  %20 = and i32 %17, 7
  store i32 %20, ptr %10, align 4
  %21 = zext i1 %16 to i8
  %22 = getelementptr inbounds i8, ptr %0, i64 59501
  store i8 %21, ptr %22, align 1
  br label %30

23:                                               ; preds = %1
  %24 = add i32 %11, 1
  %25 = lshr i32 %24, 3
  %26 = add i32 %25, %5
  store i32 %26, ptr %2, align 8
  %27 = and i32 %24, 7
  store i32 %27, ptr %10, align 4
  %28 = getelementptr inbounds i8, ptr %0, i64 59501
  store i8 0, ptr %28, align 1
  %29 = tail call noundef zeroext i1 @_ZN6Unpack12ReadTables30Ev(ptr noundef nonnull align 8 dereferenceable(59688) %0)
  br label %30

30:                                               ; preds = %.thread, %23
  %.06 = phi i1 [ %29, %23 ], [ false, %.thread ]
  ret i1 %.06
}